; Function Attrs: mustprogress uwtable
define hidden void @_ZN3sls10smt_plugin15add_shared_termEP4expr(ptr noundef nonnull align 8 dereferenceable(3024) %0, ptr noundef %1) local_unnamed_addr #3 align 2 {
  %3 = getelementptr inbounds nuw i8, ptr %0, i64 2968
  %4 = load i32, ptr %1, align 4, !tbaa !209
  %5 = lshr i32 %4, 5
  %6 = load ptr, ptr %3, align 8, !tbaa !181
  %7 = icmp eq ptr %6, null
  br i1 %7, label %thread-pre-split.i.i.preheader, label %_ZNK6vectorIjLb0EjE4sizeEv.exit.i

_ZNK6vectorIjLb0EjE4sizeEv.exit.i:                ; preds = %2
  %8 = getelementptr inbounds i8, ptr %6, i64 -4
  %9 = load i32, ptr %8, align 4, !tbaa !173
  %.not.i = icmp ult i32 %5, %9
  br i1 %.not.i, label %_ZN8uint_set6insertEj.exit, label %thread-pre-split.i.i.preheader

thread-pre-split.i.i.preheader:                   ; preds = %_ZNK6vectorIjLb0EjE4sizeEv.exit.i, %2
  %.ph = phi ptr [ null, %2 ], [ %6, %_ZNK6vectorIjLb0EjE4sizeEv.exit.i ]
  %.0.i16.i.i.ph = phi i32 [ 0, %2 ], [ %9, %_ZNK6vectorIjLb0EjE4sizeEv.exit.i ]
  %.ph5 = add nuw nsw i32 %5, 1
  br label %thread-pre-split.i.i

thread-pre-split.i.i:                             ; preds = %thread-pre-split.i.i.preheader, %_ZNK6vectorIjLb0EjE8capacityEv.exit.thread.i.i
  %10 = phi ptr [ %.pr.pre.i.i, %_ZNK6vectorIjLb0EjE8capacityEv.exit.thread.i.i ], [ %.ph, %thread-pre-split.i.i.preheader ]
  %11 = icmp eq ptr %10, null
  br i1 %11, label %_ZNK6vectorIjLb0EjE8capacityEv.exit.thread.i.i, label %_ZNK6vectorIjLb0EjE8capacityEv.exit.i.i

_ZNK6vectorIjLb0EjE8capacityEv.exit.i.i:          ; preds = %thread-pre-split.i.i
  %12 = getelementptr inbounds i8, ptr %10, i64 -8
  %13 = load i32, ptr %12, align 4, !tbaa !173
  %.not = icmp ult i32 %5, %13
  br i1 %.not, label %14, label %_ZNK6vectorIjLb0EjE8capacityEv.exit.thread.i.i

_ZNK6vectorIjLb0EjE8capacityEv.exit.thread.i.i:   ; preds = %_ZNK6vectorIjLb0EjE8capacityEv.exit.i.i, %thread-pre-split.i.i
  tail call void @_ZN6vectorIjLb0EjE13expand_vectorEv(ptr noundef nonnull align 8 dereferenceable(8) %3)
  %.pr.pre.i.i = load ptr, ptr %3, align 8, !tbaa !181
  br label %thread-pre-split.i.i, !llvm.loop !210

14:                                               ; preds = %_ZNK6vectorIjLb0EjE8capacityEv.exit.i.i
  %15 = getelementptr inbounds i8, ptr %10, i64 -4
  store i32 %.ph5, ptr %15, align 4, !tbaa !173
  %.not1218.i.i = icmp eq i32 %.0.i16.i.i.ph, %.ph5
  br i1 %.not1218.i.i, label %_ZN8uint_set6insertEj.exit, label %.lr.ph.preheader.i.i

.lr.ph.preheader.i.i:                             ; preds = %14
  %16 = zext nneg i32 %.ph5 to i64
  %17 = zext i32 %.0.i16.i.i.ph to i64
  %18 = getelementptr i32, ptr %10, i64 %17
  %19 = sub nsw i64 %16, %17
  %20 = shl nsw i64 %19, 2
  tail call void @llvm.memset.p0.i64(ptr align 4 %18, i8 0, i64 %20, i1 false), !tbaa !173
  br label %_ZN8uint_set6insertEj.exit

_ZN8uint_set6insertEj.exit:                       ; preds = %_ZNK6vectorIjLb0EjE4sizeEv.exit.i, %14, %.lr.ph.preheader.i.i
  %21 = phi ptr [ %10, %.lr.ph.preheader.i.i ], [ %10, %14 ], [ %6, %_ZNK6vectorIjLb0EjE4sizeEv.exit.i ]
  %22 = and i32 %4, 31
  %23 = shl nuw i32 1, %22
  %24 = zext nneg i32 %5 to i64
  %25 = getelementptr inbounds nuw i32, ptr %21, i64 %24
  %26 = load i32, ptr %25, align 4, !tbaa !173
  %27 = or i32 %26, %23
  store i32 %27, ptr %25, align 4, !tbaa !173
  %28 = getelementptr inbounds nuw i8, ptr %1, i64 4
  %29 = load i32, ptr %28, align 4
  %30 = and i32 %29, 65535
  %31 = icmp eq i32 %30, 0
  br i1 %31, label %32, label %_Z11is_uninterpPK4expr.exit.thread4

32:                                               ; preds = %_ZN8uint_set6insertEj.exit
  %33 = getelementptr inbounds nuw i8, ptr %1, i64 16
  %34 = load ptr, ptr %33, align 8, !tbaa !216
  %35 = getelementptr inbounds nuw i8, ptr %34, i64 24
  %36 = load ptr, ptr %35, align 8, !tbaa !221
  %37 = icmp eq ptr %36, null
  br i1 %37, label %_Z11is_uninterpPK4expr.exit.thread, label %_Z11is_uninterpPK4expr.exit

_Z11is_uninterpPK4expr.exit:                      ; preds = %32
  %38 = load i32, ptr %36, align 8, !tbaa !224
  %39 = icmp eq i32 %38, -1
  br i1 %39, label %_Z11is_uninterpPK4expr.exit.thread, label %_Z11is_uninterpPK4expr.exit.thread4

_Z11is_uninterpPK4expr.exit.thread:               ; preds = %32, %_Z11is_uninterpPK4expr.exit
  tail call void @_ZN3sls10smt_plugin12add_uninterpEP4expr(ptr noundef nonnull align 8 dereferenceable(3024) %0, ptr noundef nonnull %1)
  br label %_Z11is_uninterpPK4expr.exit.thread4

_Z11is_uninterpPK4expr.exit.thread4:              ; preds = %_ZN8uint_set6insertEj.exit, %_Z11is_uninterpPK4expr.exit.thread, %_Z11is_uninterpPK4expr.exit
  ret void
}